ccopy_reg
_reconstructor
p0
(cgoogle.oauth2.credentials
Credentials
p1
c__builtin__
object
p2
Ntp3
Rp4
(dp5
S'_token_uri'
p6
Vhttps://oauth2.googleapis.com/token
p7
sS'_scopes'
p8
(lp9
S'https://www.googleapis.com/auth/spreadsheets'
p10
asS'_id_token'
p11
NsS'token'
p12
Vya29.GlxOBxm66VkSpjcnSvtfXhFh7jplSTvSo0oaQlfCiRAWlI1CGH6ORBvaG7umE8KhIyXv2csbZK4MDvNr16ksK1nb2ECwLWE3c98TxNPMhtQaeCihCIsT5Z4l7aXddA
p13
sS'_refresh_token'
p14
V1/P3AcH_9YLtD8mgzbYNJvlOpFrPTKaaXE13Z_-ryLRrs
p15
sS'_client_secret'
p16
VfaCJEUgnYkOqiRbAqMB8dAZo
p17
sS'_client_id'
p18
V51877131123-lbcerhj6j0fk97lp0e2bfr0cg56sf17s.apps.googleusercontent.com
p19
sS'expiry'
p20
cdatetime
datetime
p21
(S'\x07\xe3\x07\x17\x0e\x18\t\t\xe3\xb4'
p22
tp23
Rp24
sb.